target datalayout = "e-m:e-p270:32:32-p271:32:32-p272:64:64-i64:64-i128:128-f80:128-n8:16:32:64-S128"
target triple = "x86_64-pc-linux-gnu"

; Function Attrs: nounwind uwtable
define internal i32 @test_early_data_skip_hrr(i32 noundef %0) #0 {
  %2 = alloca i32, align 4
  store i32 %0, ptr %2, align 4, !tbaa !13
  %3 = load i32, ptr %2, align 4, !tbaa !13
  %4 = sext i32 %3 to i64
  %5 = urem i64 %4, 7
  %6 = trunc i64 %5 to i32
  %7 = load i32, ptr %2, align 4, !tbaa !13
  %8 = sext i32 %7 to i64
  %9 = udiv i64 %8, 7
  %10 = trunc i64 %9 to i32
  %11 = call i32 @early_data_skip_helper(i32 noundef 1, i32 noundef %6, i32 noundef %10)
  ret i32 %11
}