; Function Attrs: nounwind uwtable
define internal range(i32 0, 2) i32 @test_early_data_skip_hrr(i32 noundef %0) #1 {
  %2 = sext i32 %0 to i64
  %3 = urem i64 %2, 7
  %4 = trunc nuw nsw i64 %3 to i32
  %5 = udiv i64 %2, 7
  %6 = trunc i64 %5 to i32
  %7 = tail call fastcc i32 @early_data_skip_helper(i32 noundef 1, i32 noundef %4, i32 noundef %6)
  ret i32 %7
}